; Function Attrs: mustprogress nounwind uwtable
define dso_local void @_ZNK5clang6driver9ToolChain17getSystemGPUArchsB5cxx11ERKN4llvm3opt7ArgListE(ptr dead_on_unwind noalias writable sret(%"class.llvm::Expected.165") align 8 %0, ptr nocapture nonnull readnone align 8 %1, ptr nocapture nonnull readnone align 8 %2) unnamed_addr #0 align 2 {
  %4 = alloca %"class.llvm::SmallVector.169", align 8
  %5 = getelementptr inbounds i8, ptr %4, i64 16
  call void @_ZN4llvm15SmallVectorBaseIjEC2EPvm(ptr noundef nonnull align 8 dereferenceable(16) %4, ptr noundef nonnull %5, i64 noundef 1) #25
  %6 = getelementptr inbounds nuw i8, ptr %0, i64 48
  %7 = load i8, ptr %6, align 8
  %8 = and i8 %7, -2
  store i8 %8, ptr %6, align 8
  %9 = getelementptr inbounds i8, ptr %0, i64 16
  call void @_ZN4llvm15SmallVectorBaseIjEC2EPvm(ptr noundef nonnull align 8 dereferenceable(16) %0, ptr noundef nonnull %9, i64 noundef 1) #25
  %10 = call noundef zeroext i1 @_ZNK4llvm15SmallVectorBaseIjE5emptyEv(ptr noundef nonnull align 8 dereferenceable(16) %4) #25
  br i1 %10, label %_ZN4llvm8ExpectedINS_11SmallVectorINSt7__cxx1112basic_stringIcSt11char_traitsIcESaIcEEELj1EEEEC2IS8_EEOT_PNSt9enable_ifIXsr3stdE16is_convertible_vISB_S8_EEvE4typeE.exit, label %11

11:                                               ; preds = %3
  %12 = call noundef nonnull align 8 dereferenceable(16) ptr @_ZN4llvm15SmallVectorImplINSt7__cxx1112basic_stringIcSt11char_traitsIcESaIcEEEEaSEOS7_(ptr noundef nonnull align 8 dereferenceable(16) %0, ptr noundef nonnull align 8 dereferenceable(16) %4)
  br label %_ZN4llvm8ExpectedINS_11SmallVectorINSt7__cxx1112basic_stringIcSt11char_traitsIcESaIcEEELj1EEEEC2IS8_EEOT_PNSt9enable_ifIXsr3stdE16is_convertible_vISB_S8_EEvE4typeE.exit

_ZN4llvm8ExpectedINS_11SmallVectorINSt7__cxx1112basic_stringIcSt11char_traitsIcESaIcEEELj1EEEEC2IS8_EEOT_PNSt9enable_ifIXsr3stdE16is_convertible_vISB_S8_EEvE4typeE.exit: ; preds = %3, %11
  %13 = load ptr, ptr %4, align 8
  %14 = call noundef i64 @_ZNK4llvm15SmallVectorBaseIjE4sizeEv(ptr noundef nonnull align 8 dereferenceable(16) %4) #25
  %.not4.i.i = icmp eq i64 %14, 0
  br i1 %.not4.i.i, label %_ZN4llvm23SmallVectorTemplateBaseINSt7__cxx1112basic_stringIcSt11char_traitsIcESaIcEEELb0EE13destroy_rangeEPS6_S8_.exit.i, label %.lr.ph.i.preheader.i

.lr.ph.i.preheader.i:                             ; preds = %_ZN4llvm8ExpectedINS_11SmallVectorINSt7__cxx1112basic_stringIcSt11char_traitsIcESaIcEEELj1EEEEC2IS8_EEOT_PNSt9enable_ifIXsr3stdE16is_convertible_vISB_S8_EEvE4typeE.exit
  %15 = getelementptr inbounds %"class.std::__cxx11::basic_string", ptr %13, i64 %14
  br label %.lr.ph.i.i

.lr.ph.i.i:                                       ; preds = %.lr.ph.i.i, %.lr.ph.i.preheader.i
  %.05.i.i = phi ptr [ %16, %.lr.ph.i.i ], [ %15, %.lr.ph.i.preheader.i ]
  %16 = getelementptr inbounds i8, ptr %.05.i.i, i64 -32
  call void @_ZNSt7__cxx1112basic_stringIcSt11char_traitsIcESaIcEED1Ev(ptr noundef nonnull align 8 dereferenceable(32) %16) #25
  %.not.i.i = icmp eq ptr %13, %16
  br i1 %.not.i.i, label %_ZN4llvm23SmallVectorTemplateBaseINSt7__cxx1112basic_stringIcSt11char_traitsIcESaIcEEELb0EE13destroy_rangeEPS6_S8_.exit.i, label %.lr.ph.i.i, !llvm.loop !4

_ZN4llvm23SmallVectorTemplateBaseINSt7__cxx1112basic_stringIcSt11char_traitsIcESaIcEEELb0EE13destroy_rangeEPS6_S8_.exit.i: ; preds = %.lr.ph.i.i, %_ZN4llvm8ExpectedINS_11SmallVectorINSt7__cxx1112basic_stringIcSt11char_traitsIcESaIcEEELj1EEEEC2IS8_EEOT_PNSt9enable_ifIXsr3stdE16is_convertible_vISB_S8_EEvE4typeE.exit
  %17 = load ptr, ptr %4, align 8
  %18 = icmp eq ptr %17, %5
  br i1 %18, label %_ZN4llvm11SmallVectorINSt7__cxx1112basic_stringIcSt11char_traitsIcESaIcEEELj1EED2Ev.exit, label %19

19:                                               ; preds = %_ZN4llvm23SmallVectorTemplateBaseINSt7__cxx1112basic_stringIcSt11char_traitsIcESaIcEEELb0EE13destroy_rangeEPS6_S8_.exit.i
  call void @free(ptr noundef %17) #25
  br label %_ZN4llvm11SmallVectorINSt7__cxx1112basic_stringIcSt11char_traitsIcESaIcEEELj1EED2Ev.exit

_ZN4llvm11SmallVectorINSt7__cxx1112basic_stringIcSt11char_traitsIcESaIcEEELj1EED2Ev.exit: ; preds = %_ZN4llvm23SmallVectorTemplateBaseINSt7__cxx1112basic_stringIcSt11char_traitsIcESaIcEEELb0EE13destroy_rangeEPS6_S8_.exit.i, %19
  ret void
}